target datalayout = "e-m:e-p270:32:32-p271:32:32-p272:64:64-i64:64-i128:128-f80:128-n8:16:32:64-S128"
target triple = "x86_64-pc-linux-gnu"

%struct.AVFilter = type { ptr, ptr, ptr, ptr, ptr, i32 }

; Function Attrs: nounwind uwtable
define internal ptr @filter_child_class_iterate(ptr noundef %0) #0 {
  %2 = alloca ptr, align 8
  %3 = alloca ptr, align 8
  %4 = alloca ptr, align 8
  %5 = alloca i32, align 4
  store ptr %0, ptr %3, align 8, !tbaa !231
  call void @llvm.lifetime.start.p0(i64 8, ptr %4) #11
  br label %6

6:                                                ; preds = %19, %1
  %7 = load ptr, ptr %3, align 8, !tbaa !231
  %8 = call ptr @av_filter_iterate(ptr noundef %7)
  store ptr %8, ptr %4, align 8, !tbaa !119
  %9 = icmp ne ptr %8, null
  br i1 %9, label %10, label %20

10:                                               ; preds = %6
  %11 = load ptr, ptr %4, align 8, !tbaa !119
  %12 = getelementptr inbounds nuw %struct.AVFilter, ptr %11, i32 0, i32 4
  %13 = load ptr, ptr %12, align 8, !tbaa !140
  %14 = icmp ne ptr %13, null
  br i1 %14, label %15, label %19

15:                                               ; preds = %10
  %16 = load ptr, ptr %4, align 8, !tbaa !119
  %17 = getelementptr inbounds nuw %struct.AVFilter, ptr %16, i32 0, i32 4
  %18 = load ptr, ptr %17, align 8, !tbaa !140
  store ptr %18, ptr %2, align 8
  store i32 1, ptr %5, align 4
  br label %21

19:                                               ; preds = %10
  br label %6, !llvm.loop !232

20:                                               ; preds = %6
  store ptr null, ptr %2, align 8
  store i32 1, ptr %5, align 4
  br label %21

21:                                               ; preds = %20, %15
  call void @llvm.lifetime.end.p0(i64 8, ptr %4) #11
  %22 = load ptr, ptr %2, align 8
  ret ptr %22
}