; Function Attrs: nounwind uwtable
define internal ptr @filter_child_class_iterate(ptr noundef %0) #0 {
  br label %2

2:                                                ; preds = %4, %1
  %3 = tail call ptr @av_filter_iterate(ptr noundef %0) #15
  %.not = icmp eq ptr %3, null
  br i1 %.not, label %7, label %4

4:                                                ; preds = %2
  %5 = getelementptr inbounds nuw i8, ptr %3, i64 32
  %6 = load ptr, ptr %5, align 8, !tbaa !113
  %.not6 = icmp eq ptr %6, null
  br i1 %.not6, label %2, label %7, !llvm.loop !198

7:                                                ; preds = %2, %4
  %.0 = phi ptr [ %6, %4 ], [ null, %2 ]
  ret ptr %.0
}